target datalayout = "e-m:e-p270:32:32-p271:32:32-p272:64:64-i64:64-i128:128-f80:128-n8:16:32:64-S128"
target triple = "x86_64-pc-linux-gnu"

%struct.Gia_Man_t_ = type { ptr, ptr, i32, i32, i32, i32, ptr, ptr, i32, i32, i32, ptr, ptr, %struct.Vec_Int_t_, %struct.Vec_Int_t_, i32, i32, i32, %struct.Vec_Int_t_, ptr, ptr, ptr, i32, i32, i32, i32, ptr, ptr, ptr, ptr, ptr, i32, i32, ptr, i32, ptr, ptr, ptr, ptr, ptr, ptr, ptr, ptr, ptr, ptr, ptr, ptr, ptr, ptr, ptr, ptr, ptr, ptr, %struct.Vec_Int_t_, %struct.Vec_Int_t_, ptr, ptr, ptr, ptr, ptr, ptr, ptr, ptr, ptr, ptr, ptr, ptr, ptr, ptr, ptr, ptr, ptr, ptr, ptr, ptr, ptr, i32, float, float, ptr, ptr, i32, ptr, ptr, ptr, ptr, ptr, ptr, ptr, ptr, ptr, ptr, ptr, ptr, ptr, ptr, ptr, i64, i64, ptr, ptr, i32, i32, i32, i32, i32, i32, i32, i32, i32, i32, i32, i32, ptr, ptr, ptr, ptr, ptr, ptr, ptr, ptr, i32, i32, i32, ptr, i32, i32, ptr, ptr, ptr, ptr, ptr, ptr, i32, i32, ptr, %struct.Vec_Int_t_, %struct.Vec_Int_t_, %struct.Vec_Int_t_, ptr, ptr, ptr, i32, i32, i32, i32, ptr, ptr, ptr, ptr, ptr }
%struct.Vec_Int_t_ = type { i32, i32, ptr }

; Function Attrs: inlinehint nounwind uwtable
define internal i32 @Abc_LitNotCond(i32 noundef %0, i32 noundef %1) #2 {
  %3 = alloca i32, align 4
  %4 = alloca i32, align 4
  store i32 %0, ptr %3, align 4, !tbaa !12
  store i32 %1, ptr %4, align 4, !tbaa !12
  %5 = load i32, ptr %3, align 4, !tbaa !12
  %6 = load i32, ptr %4, align 4, !tbaa !12
  %7 = icmp sgt i32 %6, 0
  %8 = zext i1 %7 to i32
  %9 = xor i32 %5, %8
  ret i32 %9
}

; Function Attrs: inlinehint nounwind uwtable
define internal i32 @Gia_ManAppendAnd2(ptr noundef %0, i32 noundef %1, i32 noundef %2) #2 {
  %4 = alloca i32, align 4
  %5 = alloca ptr, align 8
  %6 = alloca i32, align 4
  %7 = alloca i32, align 4
  store ptr %0, ptr %5, align 8, !tbaa !3
  store i32 %1, ptr %6, align 4, !tbaa !12
  store i32 %2, ptr %7, align 4, !tbaa !12
  %8 = load ptr, ptr %5, align 8, !tbaa !3
  %9 = getelementptr inbounds nuw %struct.Gia_Man_t_, ptr %8, i32 0, i32 17
  %10 = load i32, ptr %9, align 8, !tbaa !55
  %11 = icmp ne i32 %10, 0
  br i1 %11, label %47, label %12

12:                                               ; preds = %3
  %13 = load i32, ptr %6, align 4, !tbaa !12
  %14 = icmp slt i32 %13, 2
  br i1 %14, label %15, label %23

15:                                               ; preds = %12
  %16 = load i32, ptr %6, align 4, !tbaa !12
  %17 = icmp ne i32 %16, 0
  br i1 %17, label %18, label %20

18:                                               ; preds = %15
  %19 = load i32, ptr %7, align 4, !tbaa !12
  br label %21

20:                                               ; preds = %15
  br label %21

21:                                               ; preds = %20, %18
  %22 = phi i32 [ %19, %18 ], [ 0, %20 ]
  store i32 %22, ptr %4, align 4
  br label %52

23:                                               ; preds = %12
  %24 = load i32, ptr %7, align 4, !tbaa !12
  %25 = icmp slt i32 %24, 2
  br i1 %25, label %26, label %34

26:                                               ; preds = %23
  %27 = load i32, ptr %7, align 4, !tbaa !12
  %28 = icmp ne i32 %27, 0
  br i1 %28, label %29, label %31

29:                                               ; preds = %26
  %30 = load i32, ptr %6, align 4, !tbaa !12
  br label %32

31:                                               ; preds = %26
  br label %32

32:                                               ; preds = %31, %29
  %33 = phi i32 [ %30, %29 ], [ 0, %31 ]
  store i32 %33, ptr %4, align 4
  br label %52

34:                                               ; preds = %23
  %35 = load i32, ptr %6, align 4, !tbaa !12
  %36 = load i32, ptr %7, align 4, !tbaa !12
  %37 = icmp eq i32 %35, %36
  br i1 %37, label %38, label %40

38:                                               ; preds = %34
  %39 = load i32, ptr %7, align 4, !tbaa !12
  store i32 %39, ptr %4, align 4
  br label %52

40:                                               ; preds = %34
  %41 = load i32, ptr %6, align 4, !tbaa !12
  %42 = load i32, ptr %7, align 4, !tbaa !12
  %43 = call i32 @Abc_LitNot(i32 noundef %42)
  %44 = icmp eq i32 %41, %43
  br i1 %44, label %45, label %46

45:                                               ; preds = %40
  store i32 0, ptr %4, align 4
  br label %52

46:                                               ; preds = %40
  br label %47

47:                                               ; preds = %46, %3
  %48 = load ptr, ptr %5, align 8, !tbaa !3
  %49 = load i32, ptr %6, align 4, !tbaa !12
  %50 = load i32, ptr %7, align 4, !tbaa !12
  %51 = call i32 @Gia_ManAppendAnd(ptr noundef %48, i32 noundef %49, i32 noundef %50)
  store i32 %51, ptr %4, align 4
  br label %52

52:                                               ; preds = %47, %45, %38, %32, %21
  %53 = load i32, ptr %4, align 4
  ret i32 %53
}

; Function Attrs: inlinehint nounwind uwtable
define internal i32 @Abc_LitNot(i32 noundef %0) #2 {
  %2 = alloca i32, align 4
  store i32 %0, ptr %2, align 4, !tbaa !12
  %3 = load i32, ptr %2, align 4, !tbaa !12
  %4 = xor i32 %3, 1
  ret i32 %4
}

; Function Attrs: inlinehint nounwind uwtable
define internal i32 @Gia_ManAppendMux2(ptr noundef %0, i32 noundef %1, i32 noundef %2, i32 noundef %3) #2 {
  %5 = alloca ptr, align 8
  %6 = alloca i32, align 4
  %7 = alloca i32, align 4
  %8 = alloca i32, align 4
  %9 = alloca i32, align 4
  %10 = alloca i32, align 4
  store ptr %0, ptr %5, align 8, !tbaa !3
  store i32 %1, ptr %6, align 4, !tbaa !12
  store i32 %2, ptr %7, align 4, !tbaa !12
  store i32 %3, ptr %8, align 4, !tbaa !12
  call void @llvm.lifetime.start.p0(i64 4, ptr %9) #11
  %11 = load ptr, ptr %5, align 8, !tbaa !3
  %12 = load i32, ptr %6, align 4, !tbaa !12
  %13 = call i32 @Abc_LitNot(i32 noundef %12)
  %14 = load i32, ptr %8, align 4, !tbaa !12
  %15 = call i32 @Gia_ManAppendAnd2(ptr noundef %11, i32 noundef %13, i32 noundef %14)
  store i32 %15, ptr %9, align 4, !tbaa !12
  call void @llvm.lifetime.start.p0(i64 4, ptr %10) #11
  %16 = load ptr, ptr %5, align 8, !tbaa !3
  %17 = load i32, ptr %6, align 4, !tbaa !12
  %18 = load i32, ptr %7, align 4, !tbaa !12
  %19 = call i32 @Gia_ManAppendAnd2(ptr noundef %16, i32 noundef %17, i32 noundef %18)
  store i32 %19, ptr %10, align 4, !tbaa !12
  %20 = load ptr, ptr %5, align 8, !tbaa !3
  %21 = load i32, ptr %9, align 4, !tbaa !12
  %22 = call i32 @Abc_LitNot(i32 noundef %21)
  %23 = load i32, ptr %10, align 4, !tbaa !12
  %24 = call i32 @Abc_LitNot(i32 noundef %23)
  %25 = call i32 @Gia_ManAppendAnd2(ptr noundef %20, i32 noundef %22, i32 noundef %24)
  %26 = call i32 @Abc_LitNotCond(i32 noundef %25, i32 noundef 1)
  call void @llvm.lifetime.end.p0(i64 4, ptr %10) #11
  call void @llvm.lifetime.end.p0(i64 4, ptr %9) #11
  ret i32 %26
}