; Function Attrs: inlinehint nounwind uwtable
define internal fastcc i32 @Gia_ManAppendMux2(ptr noundef %0, i32 noundef %1, i32 noundef %2, i32 noundef %3) unnamed_addr #5 {
  %5 = xor i32 %1, 1
  %6 = getelementptr inbounds nuw i8, ptr %0, i64 120
  %7 = load i32, ptr %6, align 8, !tbaa !45
  %.not.i = icmp eq i32 %7, 0
  br i1 %.not.i, label %8, label %Gia_ManAppendAnd2.exit

8:                                                ; preds = %4
  %9 = icmp slt i32 %5, 2
  br i1 %9, label %10, label %12

10:                                               ; preds = %8
  %.not19.i = icmp eq i32 %1, 1
  %11 = select i1 %.not19.i, i32 0, i32 %3
  br label %Gia_ManAppendAnd2.exit.thread

12:                                               ; preds = %8
  %13 = icmp slt i32 %3, 2
  br i1 %13, label %14, label %16

14:                                               ; preds = %12
  %.not18.i = icmp eq i32 %3, 0
  %15 = select i1 %.not18.i, i32 0, i32 %5
  br label %Gia_ManAppendAnd2.exit.thread

16:                                               ; preds = %12
  %17 = icmp eq i32 %5, %3
  br i1 %17, label %Gia_ManAppendAnd2.exit.thread, label %18

18:                                               ; preds = %16
  %19 = xor i32 %3, %5
  %20 = icmp eq i32 %19, 1
  br i1 %20, label %Gia_ManAppendAnd2.exit.thread, label %Gia_ManAppendAnd2.exit

Gia_ManAppendAnd2.exit:                           ; preds = %4, %18
  %21 = tail call fastcc i32 @Gia_ManAppendAnd(ptr noundef nonnull %0, i32 noundef %5, i32 noundef %3)
  %.pre = load i32, ptr %6, align 8, !tbaa !45
  %22 = icmp eq i32 %.pre, 0
  br i1 %22, label %Gia_ManAppendAnd2.exit.thread, label %Gia_ManAppendAnd2.exit12

Gia_ManAppendAnd2.exit.thread:                    ; preds = %18, %16, %14, %10, %Gia_ManAppendAnd2.exit
  %.0.i23 = phi i32 [ %21, %Gia_ManAppendAnd2.exit ], [ 0, %18 ], [ %3, %16 ], [ %15, %14 ], [ %11, %10 ]
  %23 = icmp slt i32 %1, 2
  br i1 %23, label %24, label %26

24:                                               ; preds = %Gia_ManAppendAnd2.exit.thread
  %.not19.i11 = icmp eq i32 %1, 0
  %25 = select i1 %.not19.i11, i32 0, i32 %2
  br label %Gia_ManAppendAnd2.exit12.thread

26:                                               ; preds = %Gia_ManAppendAnd2.exit.thread
  %27 = icmp slt i32 %2, 2
  br i1 %27, label %28, label %30

28:                                               ; preds = %26
  %.not18.i10 = icmp eq i32 %2, 0
  %29 = select i1 %.not18.i10, i32 0, i32 %1
  br label %Gia_ManAppendAnd2.exit12.thread

30:                                               ; preds = %26
  %31 = icmp eq i32 %1, %2
  br i1 %31, label %Gia_ManAppendAnd2.exit12.thread, label %32

32:                                               ; preds = %30
  %33 = xor i32 %2, %1
  %34 = icmp eq i32 %33, 1
  br i1 %34, label %Gia_ManAppendAnd2.exit12.thread, label %Gia_ManAppendAnd2.exit12

Gia_ManAppendAnd2.exit12.thread:                  ; preds = %24, %28, %30, %32
  %.0.i9.ph = phi i32 [ 0, %32 ], [ %1, %30 ], [ %29, %28 ], [ %25, %24 ]
  %35 = xor i32 %.0.i23, 1
  %36 = xor i32 %.0.i9.ph, 1
  br label %41

Gia_ManAppendAnd2.exit12:                         ; preds = %Gia_ManAppendAnd2.exit, %32
  %.0.i21 = phi i32 [ %.0.i23, %32 ], [ %21, %Gia_ManAppendAnd2.exit ]
  %37 = tail call fastcc i32 @Gia_ManAppendAnd(ptr noundef nonnull %0, i32 noundef %1, i32 noundef %2)
  %.pre18 = load i32, ptr %6, align 8, !tbaa !45
  %38 = icmp eq i32 %.pre18, 0
  %39 = xor i32 %.0.i21, 1
  %40 = xor i32 %37, 1
  br i1 %38, label %41, label %56

41:                                               ; preds = %Gia_ManAppendAnd2.exit12.thread, %Gia_ManAppendAnd2.exit12
  %42 = phi i32 [ %36, %Gia_ManAppendAnd2.exit12.thread ], [ %40, %Gia_ManAppendAnd2.exit12 ]
  %43 = phi i32 [ %35, %Gia_ManAppendAnd2.exit12.thread ], [ %39, %Gia_ManAppendAnd2.exit12 ]
  %.0.i928 = phi i32 [ %.0.i9.ph, %Gia_ManAppendAnd2.exit12.thread ], [ %37, %Gia_ManAppendAnd2.exit12 ]
  %.0.i2227 = phi i32 [ %.0.i23, %Gia_ManAppendAnd2.exit12.thread ], [ %.0.i21, %Gia_ManAppendAnd2.exit12 ]
  %44 = icmp slt i32 %43, 2
  br i1 %44, label %45, label %47

45:                                               ; preds = %41
  %.not19.i16 = icmp eq i32 %.0.i2227, 1
  %46 = select i1 %.not19.i16, i32 0, i32 %42
  br label %Gia_ManAppendAnd2.exit17

47:                                               ; preds = %41
  %48 = icmp slt i32 %42, 2
  br i1 %48, label %49, label %51

49:                                               ; preds = %47
  %.not18.i15 = icmp eq i32 %.0.i928, 1
  %50 = select i1 %.not18.i15, i32 0, i32 %43
  br label %Gia_ManAppendAnd2.exit17

51:                                               ; preds = %47
  %52 = icmp eq i32 %.0.i2227, %.0.i928
  br i1 %52, label %Gia_ManAppendAnd2.exit17, label %53

53:                                               ; preds = %51
  %54 = xor i32 %.0.i928, %.0.i2227
  %55 = icmp eq i32 %54, 1
  br i1 %55, label %Gia_ManAppendAnd2.exit17, label %56

56:                                               ; preds = %53, %Gia_ManAppendAnd2.exit12
  %57 = phi i32 [ %42, %53 ], [ %40, %Gia_ManAppendAnd2.exit12 ]
  %58 = phi i32 [ %43, %53 ], [ %39, %Gia_ManAppendAnd2.exit12 ]
  %59 = tail call fastcc i32 @Gia_ManAppendAnd(ptr noundef nonnull %0, i32 noundef %58, i32 noundef %57)
  br label %Gia_ManAppendAnd2.exit17

Gia_ManAppendAnd2.exit17:                         ; preds = %45, %49, %51, %53, %56
  %.0.i14 = phi i32 [ %59, %56 ], [ %46, %45 ], [ %50, %49 ], [ %43, %51 ], [ 0, %53 ]
  %60 = xor i32 %.0.i14, 1
  ret i32 %60
}